; Function Attrs: nounwind uwtable
define i32 @lv_obj_remove_event_cb_with_user_data(ptr noundef readonly %0, ptr noundef readnone %1, ptr noundef readnone %2) local_unnamed_addr #0 {
  %.not = icmp eq ptr %0, null
  br i1 %.not, label %.preheader, label %4

.preheader:                                       ; preds = %3, %.preheader
  br label %.preheader

4:                                                ; preds = %3
  %5 = getelementptr inbounds nuw i8, ptr %0, i64 16
  %6 = load ptr, ptr %5, align 8, !tbaa !13
  %7 = icmp eq ptr %6, null
  br i1 %7, label %._crit_edge, label %lv_obj_get_event_count.exit

lv_obj_get_event_count.exit:                      ; preds = %4
  %8 = getelementptr inbounds nuw i8, ptr %6, i64 16
  %9 = tail call i32 @lv_event_get_count(ptr noundef nonnull %8) #4
  %10 = add i32 %9, -1
  %11 = icmp sgt i32 %10, -1
  br i1 %11, label %.lr.ph, label %._crit_edge

.lr.ph:                                           ; preds = %lv_obj_get_event_count.exit
  %12 = load ptr, ptr %5, align 8, !tbaa !13
  %13 = icmp eq ptr %12, null
  br i1 %13, label %._crit_edge, label %.lr.ph.split

.lr.ph.splitthread-pre-split:                     ; preds = %lv_obj_get_event_dsc.exit.thread
  %.015 = add nsw i32 %.01529, -1
  %.pr = load ptr, ptr %5, align 8, !tbaa !13
  br label %.lr.ph.split

.lr.ph.split:                                     ; preds = %.lr.ph, %.lr.ph.splitthread-pre-split
  %14 = phi ptr [ %.pr, %.lr.ph.splitthread-pre-split ], [ %12, %.lr.ph ]
  %.01529 = phi i32 [ %.015, %.lr.ph.splitthread-pre-split ], [ %10, %.lr.ph ]
  %.028 = phi i32 [ %.1, %.lr.ph.splitthread-pre-split ], [ 0, %.lr.ph ]
  %15 = icmp eq ptr %14, null
  br i1 %15, label %lv_obj_get_event_dsc.exit.thread, label %lv_obj_get_event_dsc.exit

lv_obj_get_event_dsc.exit:                        ; preds = %.lr.ph.split
  %16 = getelementptr inbounds nuw i8, ptr %14, i64 16
  %17 = tail call ptr @lv_event_get_dsc(ptr noundef nonnull %16, i32 noundef %.01529) #4
  %.not18 = icmp eq ptr %17, null
  br i1 %.not18, label %lv_obj_get_event_dsc.exit.thread, label %18

18:                                               ; preds = %lv_obj_get_event_dsc.exit
  %19 = load ptr, ptr %17, align 8, !tbaa !22
  %20 = icmp eq ptr %19, %1
  br i1 %20, label %21, label %lv_obj_get_event_dsc.exit.thread

21:                                               ; preds = %18
  %22 = getelementptr inbounds nuw i8, ptr %17, i64 8
  %23 = load ptr, ptr %22, align 8, !tbaa !26
  %24 = icmp eq ptr %23, %2
  br i1 %24, label %25, label %lv_obj_get_event_dsc.exit.thread

25:                                               ; preds = %21
  %26 = load ptr, ptr %5, align 8, !tbaa !13
  %27 = icmp eq ptr %26, null
  br i1 %27, label %lv_obj_remove_event.exit, label %28

28:                                               ; preds = %25
  %29 = getelementptr inbounds nuw i8, ptr %26, i64 16
  %30 = tail call zeroext i1 @lv_event_remove(ptr noundef nonnull %29, i32 noundef %.01529) #4
  br label %lv_obj_remove_event.exit

lv_obj_remove_event.exit:                         ; preds = %25, %28
  %31 = add i32 %.028, 1
  br label %lv_obj_get_event_dsc.exit.thread

lv_obj_get_event_dsc.exit.thread:                 ; preds = %.lr.ph.split, %lv_obj_remove_event.exit, %21, %18, %lv_obj_get_event_dsc.exit
  %.1 = phi i32 [ %31, %lv_obj_remove_event.exit ], [ %.028, %21 ], [ %.028, %18 ], [ %.028, %lv_obj_get_event_dsc.exit ], [ %.028, %.lr.ph.split ]
  %32 = icmp sgt i32 %.01529, 0
  br i1 %32, label %.lr.ph.splitthread-pre-split, label %._crit_edge, !llvm.loop !27

._crit_edge:                                      ; preds = %lv_obj_get_event_dsc.exit.thread, %4, %.lr.ph, %lv_obj_get_event_count.exit
  %.0.lcssa = phi i32 [ 0, %lv_obj_get_event_count.exit ], [ 0, %.lr.ph ], [ 0, %4 ], [ %.1, %lv_obj_get_event_dsc.exit.thread ]
  ret i32 %.0.lcssa
}